target datalayout = "e-m:e-p270:32:32-p271:32:32-p272:64:64-i64:64-i128:128-f80:128-n8:16:32:64-S128"
target triple = "x86_64-pc-linux-gnu"

%struct.diag_stats = type { i32, i32, i32, i32, i32, i32, i32, [6 x i32], i32, i32, i32, i32, i32, i32, i32, i32, i32, i32, i32, i32, i32, i32, i32, i32, i64, i32, i32, [6 x i32], i32, i32, i32, i32, i32, i32, i64, i32 }
%struct.job_record = type { i32, ptr, ptr, ptr, ptr, i16, i32, i32, i32, ptr, i32, ptr, ptr, i16, ptr, double, i64, ptr, ptr, ptr, ptr, ptr, ptr, i32, ptr, i32, i64, i64, i32, i32, ptr, i16, i64, i64, i8, i32, ptr, ptr, ptr, ptr, ptr, ptr, ptr, ptr, i32, ptr, ptr, i32, ptr, i32, ptr, i32, ptr, i32, ptr, ptr, ptr, ptr, ptr, ptr, i32, i16, i64, ptr, ptr, ptr, ptr, %struct.acct_policy_limit_set_t, i16, ptr, ptr, ptr, ptr, ptr, i32, ptr, ptr, ptr, ptr, ptr, i32, i32, ptr, ptr, ptr, i16, ptr, ptr, i8, ptr, ptr, i64, i64, i8, i32, i32, i8, i32, ptr, i32, i64, i32, ptr, ptr, ptr, i8, i16, i64, i32, ptr, ptr, ptr, ptr, ptr, i16, i32, ptr, ptr, ptr, ptr, i32, ptr, i32, i16, i64, ptr, i32, i32, ptr, i64, ptr, ptr, i64, i32, i32, i64, i32, i32, ptr, ptr, ptr, ptr, ptr, ptr, ptr, ptr, ptr, ptr, ptr, ptr, i32, ptr, i16, i16, i16, i16, ptr, i32, i32, i8, i64 }
%struct.acct_policy_limit_set_t = type { i16, i16, ptr }
%struct.job_array_struct = type { i32, ptr, ptr, i32, i32, i32, i32, i32, i32, i32 }

@slurmctld_diag_stats = dso_local global %struct.diag_stats zeroinitializer, align 8

; Function Attrs: nounwind uwtable
define internal i32 @_foreach_job_running(ptr noundef %0, ptr noundef %1) #0 {
  %3 = alloca ptr, align 8
  %4 = alloca ptr, align 8
  %5 = alloca ptr, align 8
  %6 = alloca i32, align 4
  store ptr %0, ptr %3, align 8
  store ptr %1, ptr %4, align 8
  call void @llvm.lifetime.start.p0(i64 8, ptr %5) #11
  %7 = load ptr, ptr %3, align 8
  store ptr %7, ptr %5, align 8
  %8 = load ptr, ptr %5, align 8
  %9 = getelementptr inbounds nuw %struct.job_record, ptr %8, i32 0, i32 60
  %10 = load i32, ptr %9, align 8
  %11 = and i32 %10, 255
  %12 = icmp eq i32 %11, 0
  br i1 %12, label %13, label %37

13:                                               ; preds = %2
  call void @llvm.lifetime.start.p0(i64 4, ptr %6) #11
  %14 = load ptr, ptr %5, align 8
  %15 = getelementptr inbounds nuw %struct.job_record, ptr %14, i32 0, i32 9
  %16 = load ptr, ptr %15, align 8
  %17 = icmp ne ptr %16, null
  br i1 %17, label %18, label %31

18:                                               ; preds = %13
  %19 = load ptr, ptr %5, align 8
  %20 = getelementptr inbounds nuw %struct.job_record, ptr %19, i32 0, i32 9
  %21 = load ptr, ptr %20, align 8
  %22 = getelementptr inbounds nuw %struct.job_array_struct, ptr %21, i32 0, i32 0
  %23 = load i32, ptr %22, align 8
  %24 = icmp ne i32 %23, 0
  br i1 %24, label %25, label %31

25:                                               ; preds = %18
  %26 = load ptr, ptr %5, align 8
  %27 = getelementptr inbounds nuw %struct.job_record, ptr %26, i32 0, i32 9
  %28 = load ptr, ptr %27, align 8
  %29 = getelementptr inbounds nuw %struct.job_array_struct, ptr %28, i32 0, i32 0
  %30 = load i32, ptr %29, align 8
  br label %32

31:                                               ; preds = %18, %13
  br label %32

32:                                               ; preds = %31, %25
  %33 = phi i32 [ %30, %25 ], [ 1, %31 ]
  store i32 %33, ptr %6, align 4
  %34 = load i32, ptr %6, align 4
  %35 = load i32, ptr getelementptr inbounds nuw (%struct.diag_stats, ptr @slurmctld_diag_stats, i32 0, i32 15), align 8
  %36 = add i32 %35, %34
  store i32 %36, ptr getelementptr inbounds nuw (%struct.diag_stats, ptr @slurmctld_diag_stats, i32 0, i32 15), align 8
  call void @llvm.lifetime.end.p0(i64 4, ptr %6) #11
  br label %37

37:                                               ; preds = %32, %2
  %38 = load ptr, ptr %5, align 8
  %39 = getelementptr inbounds nuw %struct.job_record, ptr %38, i32 0, i32 60
  %40 = load i32, ptr %39, align 8
  %41 = and i32 %40, 255
  %42 = icmp eq i32 %41, 1
  br i1 %42, label %43, label %46

43:                                               ; preds = %37
  %44 = load i32, ptr getelementptr inbounds nuw (%struct.diag_stats, ptr @slurmctld_diag_stats, i32 0, i32 16), align 4
  %45 = add i32 %44, 1
  store i32 %45, ptr getelementptr inbounds nuw (%struct.diag_stats, ptr @slurmctld_diag_stats, i32 0, i32 16), align 4
  br label %46

46:                                               ; preds = %43, %37
  call void @llvm.lifetime.end.p0(i64 8, ptr %5) #11
  ret i32 0
}