; Function Attrs: mustprogress nofree norecurse nosync nounwind willreturn memory(readwrite, argmem: read, inaccessiblemem: none) uwtable
define internal noundef i32 @_foreach_job_running(ptr noundef readonly captures(none) %0, ptr readnone captures(none) %1) #16 {
  %3 = getelementptr inbounds nuw i8, ptr %0, i64 448
  %4 = load i32, ptr %3, align 8
  %trunc = trunc i32 %4 to i8
  switch i8 %trunc, label %16 [
    i8 0, label %5
    i8 1, label %13
  ]

5:                                                ; preds = %2
  %6 = getelementptr inbounds nuw i8, ptr %0, i64 56
  %7 = load ptr, ptr %6, align 8
  %.not = icmp eq ptr %7, null
  br i1 %.not, label %.thread, label %8

8:                                                ; preds = %5
  %9 = load i32, ptr %7, align 8
  %spec.select = tail call i32 @llvm.umax.i32(i32 %9, i32 1)
  br label %.thread

.thread:                                          ; preds = %5, %8
  %10 = phi i32 [ 1, %5 ], [ %spec.select, %8 ]
  %11 = load i32, ptr getelementptr inbounds nuw (i8, ptr @slurmctld_diag_stats, i64 80), align 8
  %12 = add i32 %11, %10
  store i32 %12, ptr getelementptr inbounds nuw (i8, ptr @slurmctld_diag_stats, i64 80), align 8
  br label %16

13:                                               ; preds = %2
  %14 = load i32, ptr getelementptr inbounds nuw (i8, ptr @slurmctld_diag_stats, i64 84), align 4
  %15 = add i32 %14, 1
  store i32 %15, ptr getelementptr inbounds nuw (i8, ptr @slurmctld_diag_stats, i64 84), align 4
  br label %16

16:                                               ; preds = %2, %.thread, %13
  ret i32 0
}